; Function Attrs: mustprogress nounwind uwtable
define hidden void @_ZN4cvc58internal9TimerStat4stopEv(ptr noundef nonnull readonly align 8 captures(none) dereferenceable(8) %this) local_unnamed_addr #2 align 2 {
entry:
  %call = tail call i64 @_ZNSt6chrono3_V212steady_clock3nowEv() #5
  %0 = load ptr, ptr %this, align 8
  %d_start = getelementptr inbounds nuw i8, ptr %0, i64 24
  %retval.sroa.0.0.copyload.i1.i = load i64, ptr %d_start, align 8
  %sub.i.i = sub i64 %call, %retval.sroa.0.0.copyload.i1.i
  %d_duration = getelementptr inbounds nuw i8, ptr %0, i64 16
  %1 = load i64, ptr %d_duration, align 8
  %add.i = add nsw i64 %sub.i.i, %1
  store i64 %add.i, ptr %d_duration, align 8
  %2 = load ptr, ptr %this, align 8
  %d_running = getelementptr inbounds nuw i8, ptr %2, i64 32
  store i8 0, ptr %d_running, align 8
  ret void
}